target datalayout = "e-m:e-p270:32:32-p271:32:32-p272:64:64-i64:64-i128:128-f80:128-n8:16:32:64-S128"
target triple = "x86_64-pc-linux-gnu"

%struct.evp_pkey_asn1_method_st = type { i32, i32, i64, ptr, ptr, ptr, ptr, ptr, ptr, ptr, ptr, ptr, ptr, ptr, ptr, ptr, ptr, ptr, ptr, ptr, ptr, ptr, ptr, ptr, ptr, ptr, ptr, ptr, ptr, ptr, ptr, ptr, ptr, ptr, ptr, ptr, ptr, ptr, ptr, ptr, ptr }
%struct.ossl_item_st = type { i32, ptr }

; Function Attrs: nounwind uwtable
define i32 @EVP_PKEY_type(i32 noundef %0) #0 {
  %2 = alloca i32, align 4
  %3 = alloca i32, align 4
  %4 = alloca ptr, align 8
  %5 = alloca ptr, align 8
  store i32 %0, ptr %2, align 4, !tbaa !8
  call void @llvm.lifetime.start.p0(i64 4, ptr %3) #8
  call void @llvm.lifetime.start.p0(i64 8, ptr %4) #8
  call void @llvm.lifetime.start.p0(i64 8, ptr %5) #8
  %6 = load i32, ptr %2, align 4, !tbaa !8
  %7 = call ptr @EVP_PKEY_asn1_find(ptr noundef %5, i32 noundef %6)
  store ptr %7, ptr %4, align 8, !tbaa !70
  %8 = load ptr, ptr %4, align 8, !tbaa !70
  %9 = icmp ne ptr %8, null
  br i1 %9, label %10, label %14

10:                                               ; preds = %1
  %11 = load ptr, ptr %4, align 8, !tbaa !70
  %12 = getelementptr inbounds nuw %struct.evp_pkey_asn1_method_st, ptr %11, i32 0, i32 0
  %13 = load i32, ptr %12, align 8, !tbaa !94
  store i32 %13, ptr %3, align 4, !tbaa !8
  br label %15

14:                                               ; preds = %1
  store i32 0, ptr %3, align 4, !tbaa !8
  br label %15

15:                                               ; preds = %14, %10
  %16 = load ptr, ptr %5, align 8, !tbaa !69
  %17 = call i32 @ENGINE_finish(ptr noundef %16)
  %18 = load i32, ptr %3, align 4, !tbaa !8
  call void @llvm.lifetime.end.p0(i64 8, ptr %5) #8
  call void @llvm.lifetime.end.p0(i64 8, ptr %4) #8
  call void @llvm.lifetime.end.p0(i64 4, ptr %3) #8
  ret i32 %18
}

; Function Attrs: nounwind uwtable
define i32 @evp_pkey_name2type(ptr noundef %0) #0 {
  %2 = alloca i32, align 4
  %3 = alloca ptr, align 8
  %4 = alloca i32, align 4
  %5 = alloca i64, align 8
  %6 = alloca i32, align 4
  store ptr %0, ptr %3, align 8, !tbaa !39
  call void @llvm.lifetime.start.p0(i64 4, ptr %4) #8
  call void @llvm.lifetime.start.p0(i64 8, ptr %5) #8
  store i64 0, ptr %5, align 8, !tbaa !68
  br label %7

7:                                                ; preds = %24, %1
  %8 = load i64, ptr %5, align 8, !tbaa !68
  %9 = icmp ult i64 %8, 12
  br i1 %9, label %10, label %27

10:                                               ; preds = %7
  %11 = load ptr, ptr %3, align 8, !tbaa !39
  %12 = load i64, ptr %5, align 8, !tbaa !68
  %13 = getelementptr inbounds nuw [12 x %struct.ossl_item_st], ptr @standard_name2type, i64 0, i64 %12
  %14 = getelementptr inbounds nuw %struct.ossl_item_st, ptr %13, i32 0, i32 1
  %15 = load ptr, ptr %14, align 8, !tbaa !108
  %16 = call i32 @OPENSSL_strcasecmp(ptr noundef %11, ptr noundef %15)
  %17 = icmp eq i32 %16, 0
  br i1 %17, label %18, label %23

18:                                               ; preds = %10
  %19 = load i64, ptr %5, align 8, !tbaa !68
  %20 = getelementptr inbounds nuw [12 x %struct.ossl_item_st], ptr @standard_name2type, i64 0, i64 %19
  %21 = getelementptr inbounds nuw %struct.ossl_item_st, ptr %20, i32 0, i32 0
  %22 = load i32, ptr %21, align 16, !tbaa !110
  store i32 %22, ptr %2, align 4
  store i32 1, ptr %6, align 4
  br label %38

23:                                               ; preds = %10
  br label %24

24:                                               ; preds = %23
  %25 = load i64, ptr %5, align 8, !tbaa !68
  %26 = add i64 %25, 1
  store i64 %26, ptr %5, align 8, !tbaa !68
  br label %7, !llvm.loop !111

27:                                               ; preds = %7
  %28 = load ptr, ptr %3, align 8, !tbaa !39
  %29 = call i32 @OBJ_sn2nid(ptr noundef %28)
  %30 = call i32 @EVP_PKEY_type(i32 noundef %29)
  store i32 %30, ptr %4, align 4, !tbaa !8
  %31 = icmp ne i32 %30, 0
  br i1 %31, label %32, label %34

32:                                               ; preds = %27
  %33 = load i32, ptr %4, align 4, !tbaa !8
  store i32 %33, ptr %2, align 4
  store i32 1, ptr %6, align 4
  br label %38

34:                                               ; preds = %27
  %35 = load ptr, ptr %3, align 8, !tbaa !39
  %36 = call i32 @OBJ_ln2nid(ptr noundef %35)
  %37 = call i32 @EVP_PKEY_type(i32 noundef %36)
  store i32 %37, ptr %2, align 4
  store i32 1, ptr %6, align 4
  br label %38

38:                                               ; preds = %34, %32, %18
  call void @llvm.lifetime.end.p0(i64 8, ptr %5) #8
  call void @llvm.lifetime.end.p0(i64 4, ptr %4) #8
  %39 = load i32, ptr %2, align 4
  ret i32 %39
}