; Function Attrs: nounwind uwtable
define i32 @evp_pkey_name2type(ptr noundef %0) local_unnamed_addr #0 {
  %2 = alloca ptr, align 8
  %3 = alloca ptr, align 8
  br label %6

4:                                                ; preds = %6
  %5 = add nuw nsw i64 %.015, 1
  %exitcond.not = icmp eq i64 %5, 12
  br i1 %exitcond.not, label %14, label %6, !llvm.loop !84

6:                                                ; preds = %1, %4
  %.015 = phi i64 [ 0, %1 ], [ %5, %4 ]
  %7 = getelementptr inbounds nuw [12 x %struct.ossl_item_st], ptr @standard_name2type, i64 0, i64 %.015
  %8 = getelementptr inbounds nuw i8, ptr %7, i64 8
  %9 = load ptr, ptr %8, align 8, !tbaa !86
  %10 = tail call i32 @OPENSSL_strcasecmp(ptr noundef %0, ptr noundef %9) #12
  %11 = icmp eq i32 %10, 0
  br i1 %11, label %12, label %4

12:                                               ; preds = %6
  %13 = load i32, ptr %7, align 16, !tbaa !88
  br label %29

14:                                               ; preds = %4
  %15 = tail call i32 @OBJ_sn2nid(ptr noundef %0) #12
  call void @llvm.lifetime.start.p0(i64 8, ptr nonnull %3) #12
  %16 = call ptr @EVP_PKEY_asn1_find(ptr noundef nonnull %3, i32 noundef %15) #12
  %.not.i = icmp eq ptr %16, null
  br i1 %.not.i, label %EVP_PKEY_type.exit.thread, label %EVP_PKEY_type.exit

EVP_PKEY_type.exit.thread:                        ; preds = %14
  %17 = load ptr, ptr %3, align 8, !tbaa !61
  %18 = call i32 @ENGINE_finish(ptr noundef %17) #12
  call void @llvm.lifetime.end.p0(i64 8, ptr nonnull %3) #12
  br label %22

EVP_PKEY_type.exit:                               ; preds = %14
  %19 = load i32, ptr %16, align 8, !tbaa !80
  %20 = load ptr, ptr %3, align 8, !tbaa !61
  %21 = call i32 @ENGINE_finish(ptr noundef %20) #12
  call void @llvm.lifetime.end.p0(i64 8, ptr nonnull %3) #12
  %.not = icmp eq i32 %19, 0
  br i1 %.not, label %22, label %29

22:                                               ; preds = %EVP_PKEY_type.exit.thread, %EVP_PKEY_type.exit
  %23 = call i32 @OBJ_ln2nid(ptr noundef %0) #12
  call void @llvm.lifetime.start.p0(i64 8, ptr nonnull %2) #12
  %24 = call ptr @EVP_PKEY_asn1_find(ptr noundef nonnull %2, i32 noundef %23) #12
  %.not.i10 = icmp eq ptr %24, null
  br i1 %.not.i10, label %EVP_PKEY_type.exit12, label %25

25:                                               ; preds = %22
  %26 = load i32, ptr %24, align 8, !tbaa !80
  br label %EVP_PKEY_type.exit12

EVP_PKEY_type.exit12:                             ; preds = %22, %25
  %.0.i11 = phi i32 [ %26, %25 ], [ 0, %22 ]
  %27 = load ptr, ptr %2, align 8, !tbaa !61
  %28 = call i32 @ENGINE_finish(ptr noundef %27) #12
  call void @llvm.lifetime.end.p0(i64 8, ptr nonnull %2) #12
  br label %29

29:                                               ; preds = %EVP_PKEY_type.exit, %EVP_PKEY_type.exit12, %12
  %.08 = phi i32 [ %13, %12 ], [ %.0.i11, %EVP_PKEY_type.exit12 ], [ %19, %EVP_PKEY_type.exit ]
  ret i32 %.08
}